target datalayout = "e-m:e-p270:32:32-p271:32:32-p272:64:64-i64:64-i128:128-f80:128-n8:16:32:64-S128"
target triple = "x86_64-pc-linux-gnu"

@lock_file = hidden global i32 -1, align 4
@.str = private unnamed_addr constant [13 x i8] c"opcache_lock\00", align 1
@lockfile_name = internal global [4096 x i8] zeroinitializer, align 16
@.str.1 = private unnamed_addr constant [12 x i8] c"%s/%sXXXXXX\00", align 1
@.str.2 = private unnamed_addr constant [10 x i8] c".ZendSem.\00", align 1
@.str.3 = private unnamed_addr constant [50 x i8] c"Unable to create opcache lock file in %s: %s (%d)\00", align 1

; Function Attrs: nounwind uwtable
define hidden void @zend_shared_alloc_create_lock(ptr noundef %0) #0 {
  %2 = alloca ptr, align 8
  %3 = alloca i32, align 4
  store ptr %0, ptr %2, align 8
  %4 = call i32 @memfd_create(ptr noundef @.str, i32 noundef 1) #10
  store i32 %4, ptr @lock_file, align 4
  %5 = load i32, ptr @lock_file, align 4
  %6 = icmp sge i32 %5, 0
  br i1 %6, label %7, label %8

7:                                                ; preds = %1
  br label %38

8:                                                ; preds = %1
  %9 = load ptr, ptr %2, align 8
  %10 = call i32 (ptr, i32, ...) @open(ptr noundef %9, i32 noundef 4784258, i32 noundef 438)
  store i32 %10, ptr @lock_file, align 4
  %11 = load i32, ptr @lock_file, align 4
  %12 = icmp sge i32 %11, 0
  br i1 %12, label %13, label %14

13:                                               ; preds = %8
  br label %38

14:                                               ; preds = %8
  %15 = load ptr, ptr %2, align 8
  %16 = call i32 (ptr, i64, ptr, ...) @snprintf(ptr noundef @lockfile_name, i64 noundef 4096, ptr noundef @.str.1, ptr noundef %15, ptr noundef @.str.2) #10
  %17 = call i32 @mkstemp(ptr noundef @lockfile_name)
  store i32 %17, ptr @lock_file, align 4
  %18 = load i32, ptr @lock_file, align 4
  %19 = icmp eq i32 %18, -1
  br i1 %19, label %20, label %27

20:                                               ; preds = %14
  %21 = load ptr, ptr %2, align 8
  %22 = call ptr @__errno_location() #11
  %23 = load i32, ptr %22, align 4
  %24 = call ptr @strerror(i32 noundef %23) #10
  %25 = call ptr @__errno_location() #11
  %26 = load i32, ptr %25, align 4
  call void (i32, ptr, ...) @zend_accel_error_noreturn(i32 noundef 0, ptr noundef @.str.3, ptr noundef %21, ptr noundef %24, i32 noundef %26) #12
  unreachable

27:                                               ; preds = %14
  %28 = load i32, ptr @lock_file, align 4
  %29 = call i32 @fchmod(i32 noundef %28, i32 noundef 438) #10
  %30 = load i32, ptr @lock_file, align 4
  %31 = call i32 (i32, i32, ...) @fcntl(i32 noundef %30, i32 noundef 1, i32 noundef 0)
  store i32 %31, ptr %3, align 4
  %32 = load i32, ptr %3, align 4
  %33 = or i32 %32, 1
  store i32 %33, ptr %3, align 4
  %34 = load i32, ptr @lock_file, align 4
  %35 = load i32, ptr %3, align 4
  %36 = call i32 (i32, i32, ...) @fcntl(i32 noundef %34, i32 noundef 2, i32 noundef %35)
  %37 = call i32 @unlink(ptr noundef @lockfile_name) #10
  br label %38

38:                                               ; preds = %27, %13, %7
  ret void
}