; Function Attrs: nounwind uwtable
define hidden void @zend_shared_alloc_create_lock(ptr noundef %0) local_unnamed_addr #0 {
  %2 = tail call i32 @memfd_create(ptr noundef nonnull @.str, i32 noundef 1) #20
  store i32 %2, ptr @lock_file, align 4
  %3 = icmp sgt i32 %2, -1
  br i1 %3, label %24, label %4

4:                                                ; preds = %1
  %5 = tail call i32 (ptr, i32, ...) @open(ptr noundef %0, i32 noundef 4784258, i32 noundef 438) #20
  store i32 %5, ptr @lock_file, align 4
  %6 = icmp sgt i32 %5, -1
  br i1 %6, label %24, label %7

7:                                                ; preds = %4
  %8 = tail call i32 (ptr, i64, ptr, ...) @snprintf(ptr noundef nonnull dereferenceable(1) @lockfile_name, i64 noundef 4096, ptr noundef nonnull @.str.1, ptr noundef %0, ptr noundef nonnull @.str.2) #20
  %9 = tail call i32 @mkstemp(ptr noundef nonnull @lockfile_name) #20
  store i32 %9, ptr @lock_file, align 4
  %10 = icmp eq i32 %9, -1
  br i1 %10, label %11, label %16

11:                                               ; preds = %7
  %12 = tail call ptr @__errno_location() #21
  %13 = load i32, ptr %12, align 4
  %14 = tail call ptr @strerror(i32 noundef %13) #20
  %15 = load i32, ptr %12, align 4
  tail call void (i32, ptr, ...) @zend_accel_error_noreturn(i32 noundef 0, ptr noundef nonnull @.str.3, ptr noundef %0, ptr noundef %14, i32 noundef %15) #22
  unreachable

16:                                               ; preds = %7
  %17 = tail call i32 @fchmod(i32 noundef %9, i32 noundef 438) #20
  %18 = load i32, ptr @lock_file, align 4
  %19 = tail call i32 (i32, i32, ...) @fcntl(i32 noundef %18, i32 noundef 1, i32 noundef 0) #20
  %20 = or i32 %19, 1
  %21 = load i32, ptr @lock_file, align 4
  %22 = tail call i32 (i32, i32, ...) @fcntl(i32 noundef %21, i32 noundef 2, i32 noundef %20) #20
  %23 = tail call i32 @unlink(ptr noundef nonnull @lockfile_name) #20
  br label %24

24:                                               ; preds = %4, %1, %16
  ret void
}